target datalayout = "e-m:e-p270:32:32-p271:32:32-p272:64:64-i64:64-i128:128-f80:128-n8:16:32:64-S128"
target triple = "x86_64-pc-linux-gnu"

%"class.std::basic_ostream" = type { ptr, %"class.std::basic_ios" }
%"class.std::basic_ios" = type { %"class.std::ios_base", ptr, i8, i8, ptr, ptr, ptr, ptr }
%"class.std::ios_base" = type { ptr, i64, i64, i32, i32, i32, ptr, %"struct.std::ios_base::_Words", [8 x %"struct.std::ios_base::_Words"], i32, ptr, %"class.std::locale" }
%"struct.std::ios_base::_Words" = type { ptr, i64 }
%"class.std::locale" = type { ptr }
%"class.boost::detail::test_result" = type { i8, i32 }
%"class.boost::static_strings::basic_static_string.40" = type { i8 }

@__dso_handle = external hidden global i8
@.str.13 = private unnamed_addr constant [131 x i8] c"generated/home/dtcxzyw/WorkSpace/Projects/compilers/llvm-opt-benchmark/bench/boost/boost/libs/static_string/test/static_string.cpp\00", align 1
@.str.5393 = private unnamed_addr constant [14 x i8] c"a.size() == 0\00", align 1
@__PRETTY_FUNCTION__._ZN5boost14static_strings9testEmptyEv = private unnamed_addr constant [40 x i8] c"void boost::static_strings::testEmpty()\00", align 1
@.str.5394 = private unnamed_addr constant [20 x i8] c"a.data() != nullptr\00", align 1
@.str.5395 = private unnamed_addr constant [18 x i8] c"a.capacity() == 0\00", align 1
@_ZSt4cerr = external global %"class.std::basic_ostream", align 8
@.str.5415 = private unnamed_addr constant [2 x i8] c"(\00", align 1
@.str.5416 = private unnamed_addr constant [10 x i8] c"): test '\00", align 1
@.str.5417 = private unnamed_addr constant [23 x i8] c"' failed in function '\00", align 1
@.str.5418 = private unnamed_addr constant [2 x i8] c"'\00", align 1
@_ZZN5boost6detail12test_resultsEvE8instance = linkonce_odr hidden global %"class.boost::detail::test_result" zeroinitializer, comdat, align 4
@_ZGVZN5boost6detail12test_resultsEvE8instance = linkonce_odr hidden global i64 0, comdat, align 8

; Function Attrs: inlinehint mustprogress nounwind uwtable
define linkonce_odr dso_local noundef i32 @_ZStorSt12_Ios_IostateS_(i32 noundef %0, i32 noundef %1) #10 comdat {
  %3 = alloca i32, align 4
  %4 = alloca i32, align 4
  store i32 %0, ptr %3, align 4, !tbaa !73
  store i32 %1, ptr %4, align 4, !tbaa !73
  %5 = load i32, ptr %3, align 4, !tbaa !73
  %6 = load i32, ptr %4, align 4, !tbaa !73
  %7 = or i32 %5, %6
  ret i32 %7
}

; Function Attrs: mustprogress nounwind uwtable
define available_externally noundef i32 @_ZNKSt9basic_iosIcSt11char_traitsIcEE7rdstateEv(ptr noundef nonnull align 8 dereferenceable(264) %0) #4 align 2 {
  %2 = alloca ptr, align 8
  store ptr %0, ptr %2, align 8, !tbaa !4
  %3 = load ptr, ptr %2, align 8
  %4 = getelementptr inbounds nuw %"class.std::ios_base", ptr %3, i32 0, i32 5
  %5 = load i32, ptr %4, align 8, !tbaa !75
  ret i32 %5
}

; Function Attrs: inlinehint mustprogress nounwind uwtable
define linkonce_odr hidden void @_ZN5boost4core6detail14lwt_unattendedEv() #10 comdat {
  ret void
}

; Function Attrs: mustprogress nounwind uwtable
define linkonce_odr hidden noundef i64 @_ZNSt11char_traitsIcE6lengthEPKc(ptr noundef %0) #4 comdat align 2 {
  %2 = alloca ptr, align 8
  store ptr %0, ptr %2, align 8, !tbaa !4
  %3 = load ptr, ptr %2, align 8, !tbaa !4
  %4 = call i64 @strlen(ptr noundef %3) #3
  ret i64 %4
}

; Function Attrs: mustprogress uwtable
define available_externally void @_ZNSt9basic_iosIcSt11char_traitsIcEE8setstateESt12_Ios_Iostate(ptr noundef nonnull align 8 dereferenceable(264) %0, i32 noundef %1) #5 align 2 {
  %3 = alloca ptr, align 8
  %4 = alloca i32, align 4
  store ptr %0, ptr %3, align 8, !tbaa !4
  store i32 %1, ptr %4, align 4, !tbaa !73
  %5 = load ptr, ptr %3, align 8
  %6 = call noundef i32 @_ZNKSt9basic_iosIcSt11char_traitsIcEE7rdstateEv(ptr noundef nonnull align 8 dereferenceable(264) %5)
  %7 = load i32, ptr %4, align 4, !tbaa !73
  %8 = call noundef i32 @_ZStorSt12_Ios_IostateS_(i32 noundef %6, i32 noundef %7)
  call void @_ZNSt9basic_iosIcSt11char_traitsIcEE5clearESt12_Ios_Iostate(ptr noundef nonnull align 8 dereferenceable(264) %5, i32 noundef %8)
  ret void
}

; Function Attrs: mustprogress uwtable
define linkonce_odr hidden void @_ZN5boost6detail11test_resultC2Ev(ptr noundef nonnull align 4 dereferenceable(8) %0) unnamed_addr #5 comdat align 2 {
  %2 = alloca ptr, align 8
  store ptr %0, ptr %2, align 8, !tbaa !4
  %3 = load ptr, ptr %2, align 8
  %4 = getelementptr inbounds nuw %"class.boost::detail::test_result", ptr %3, i32 0, i32 0
  store i8 0, ptr %4, align 4, !tbaa !93
  %5 = getelementptr inbounds nuw %"class.boost::detail::test_result", ptr %3, i32 0, i32 1
  store i32 0, ptr %5, align 4, !tbaa !95
  call void @_ZN5boost4core6detail14lwt_unattendedEv()
  ret void
}

; Function Attrs: mustprogress nounwind uwtable
define linkonce_odr hidden noundef nonnull align 4 dereferenceable(4) ptr @_ZN5boost6detail11test_result6errorsEv(ptr noundef nonnull align 4 dereferenceable(8) %0) #4 comdat align 2 {
  %2 = alloca ptr, align 8
  store ptr %0, ptr %2, align 8, !tbaa !4
  %3 = load ptr, ptr %2, align 8
  %4 = getelementptr inbounds nuw %"class.boost::detail::test_result", ptr %3, i32 0, i32 1
  ret ptr %4
}

; Function Attrs: mustprogress uwtable
define available_externally noundef nonnull align 8 dereferenceable(8) ptr @_ZNSolsEPFRSoS_E(ptr noundef nonnull align 8 dereferenceable(8) %0, ptr noundef %1) #5 align 2 {
  %3 = alloca ptr, align 8
  %4 = alloca ptr, align 8
  store ptr %0, ptr %3, align 8, !tbaa !4
  store ptr %1, ptr %4, align 8, !tbaa !4
  %5 = load ptr, ptr %3, align 8
  %6 = load ptr, ptr %4, align 8, !tbaa !4
  %7 = call noundef nonnull align 8 dereferenceable(8) ptr %6(ptr noundef nonnull align 8 dereferenceable(8) %5)
  ret ptr %7
}

; Function Attrs: inlinehint mustprogress uwtable
define available_externally noundef nonnull align 8 dereferenceable(8) ptr @_ZStlsISt11char_traitsIcEERSt13basic_ostreamIcT_ES5_PKc(ptr noundef nonnull align 8 dereferenceable(8) %0, ptr noundef %1) #11 {
  %3 = alloca ptr, align 8
  %4 = alloca ptr, align 8
  store ptr %0, ptr %3, align 8, !tbaa !4
  store ptr %1, ptr %4, align 8, !tbaa !4
  %5 = load ptr, ptr %4, align 8, !tbaa !4
  %6 = icmp ne ptr %5, null
  br i1 %6, label %13, label %7

7:                                                ; preds = %2
  %8 = load ptr, ptr %3, align 8, !tbaa !4
  %9 = load ptr, ptr %8, align 8, !tbaa !62
  %10 = getelementptr i8, ptr %9, i64 -24
  %11 = load i64, ptr %10, align 8
  %12 = getelementptr inbounds i8, ptr %8, i64 %11
  call void @_ZNSt9basic_iosIcSt11char_traitsIcEE8setstateESt12_Ios_Iostate(ptr noundef nonnull align 8 dereferenceable(264) %12, i32 noundef 1)
  br label %19

13:                                               ; preds = %2
  %14 = load ptr, ptr %3, align 8, !tbaa !4
  %15 = load ptr, ptr %4, align 8, !tbaa !4
  %16 = load ptr, ptr %4, align 8, !tbaa !4
  %17 = call noundef i64 @_ZNSt11char_traitsIcE6lengthEPKc(ptr noundef %16)
  %18 = call noundef nonnull align 8 dereferenceable(8) ptr @_ZSt16__ostream_insertIcSt11char_traitsIcEERSt13basic_ostreamIT_T0_ES6_PKS3_l(ptr noundef nonnull align 8 dereferenceable(8) %14, ptr noundef %15, i64 noundef %17)
  br label %19

19:                                               ; preds = %13, %7
  %20 = load ptr, ptr %3, align 8, !tbaa !4
  ret ptr %20
}

; Function Attrs: inlinehint mustprogress uwtable
define linkonce_odr hidden noundef nonnull align 4 dereferenceable(8) ptr @_ZN5boost6detail12test_resultsEv() #11 comdat personality ptr @__gxx_personality_v0 {
  %1 = alloca ptr, align 8
  %2 = alloca i32, align 4
  %3 = load atomic i8, ptr @_ZGVZN5boost6detail12test_resultsEvE8instance acquire, align 8
  %4 = icmp eq i8 %3, 0
  br i1 %4, label %5, label %11, !prof !48

5:                                                ; preds = %0
  %6 = call i32 @__cxa_guard_acquire(ptr @_ZGVZN5boost6detail12test_resultsEvE8instance) #3
  %7 = icmp ne i32 %6, 0
  br i1 %7, label %8, label %11

8:                                                ; preds = %5
  invoke void @_ZN5boost6detail11test_resultC2Ev(ptr noundef nonnull align 4 dereferenceable(8) @_ZZN5boost6detail12test_resultsEvE8instance)
          to label %9 unwind label %12

9:                                                ; preds = %8
  %10 = call i32 @__cxa_atexit(ptr @_ZN5boost6detail11test_resultD2Ev, ptr @_ZZN5boost6detail12test_resultsEvE8instance, ptr @__dso_handle) #3
  call void @__cxa_guard_release(ptr @_ZGVZN5boost6detail12test_resultsEvE8instance) #3
  br label %11

11:                                               ; preds = %9, %5, %0
  ret ptr @_ZZN5boost6detail12test_resultsEvE8instance

12:                                               ; preds = %8
  %13 = landingpad { ptr, i32 }
          cleanup
  %14 = extractvalue { ptr, i32 } %13, 0
  store ptr %14, ptr %1, align 8
  %15 = extractvalue { ptr, i32 } %13, 1
  store i32 %15, ptr %2, align 4
  call void @__cxa_guard_abort(ptr @_ZGVZN5boost6detail12test_resultsEvE8instance) #3
  br label %16

16:                                               ; preds = %12
  %17 = load ptr, ptr %1, align 8
  %18 = load i32, ptr %2, align 4
  %19 = insertvalue { ptr, i32 } poison, ptr %17, 0
  %20 = insertvalue { ptr, i32 } %19, i32 %18, 1
  resume { ptr, i32 } %20
}

; Function Attrs: mustprogress nounwind uwtable
define linkonce_odr hidden void @_ZN5boost14static_strings6detail18static_string_baseILm0EcSt11char_traitsIcEEC2Ev(ptr noundef nonnull align 1 dereferenceable(1) %0) unnamed_addr #4 comdat align 2 {
  %2 = alloca ptr, align 8
  store ptr %0, ptr %2, align 8, !tbaa !4
  ret void
}

; Function Attrs: inlinehint mustprogress uwtable
define linkonce_odr hidden noundef zeroext i1 @_ZN5boost6detail9test_implEPKcS2_iS2_b(ptr noundef %0, ptr noundef %1, i32 noundef %2, ptr noundef %3, i1 noundef zeroext %4) #11 comdat {
  %6 = alloca i1, align 1
  %7 = alloca ptr, align 8
  %8 = alloca ptr, align 8
  %9 = alloca i32, align 4
  %10 = alloca ptr, align 8
  %11 = alloca i8, align 1
  store ptr %0, ptr %7, align 8, !tbaa !4
  store ptr %1, ptr %8, align 8, !tbaa !4
  store i32 %2, ptr %9, align 4, !tbaa !46
  store ptr %3, ptr %10, align 8, !tbaa !4
  %12 = zext i1 %4 to i8
  store i8 %12, ptr %11, align 1, !tbaa !33
  %13 = load i8, ptr %11, align 1, !tbaa !33, !range !35, !noundef !36
  %14 = trunc i8 %13 to i1
  br i1 %14, label %15, label %17

15:                                               ; preds = %5
  %16 = call noundef nonnull align 4 dereferenceable(8) ptr @_ZN5boost6detail12test_resultsEv()
  store i1 true, ptr %6, align 1
  br label %35

17:                                               ; preds = %5
  %18 = load ptr, ptr %8, align 8, !tbaa !4
  %19 = call noundef nonnull align 8 dereferenceable(8) ptr @_ZStlsISt11char_traitsIcEERSt13basic_ostreamIcT_ES5_PKc(ptr noundef nonnull align 8 dereferenceable(8) @_ZSt4cerr, ptr noundef %18)
  %20 = call noundef nonnull align 8 dereferenceable(8) ptr @_ZStlsISt11char_traitsIcEERSt13basic_ostreamIcT_ES5_PKc(ptr noundef nonnull align 8 dereferenceable(8) %19, ptr noundef @.str.5415)
  %21 = load i32, ptr %9, align 4, !tbaa !46
  %22 = call noundef nonnull align 8 dereferenceable(8) ptr @_ZNSolsEi(ptr noundef nonnull align 8 dereferenceable(8) %20, i32 noundef %21)
  %23 = call noundef nonnull align 8 dereferenceable(8) ptr @_ZStlsISt11char_traitsIcEERSt13basic_ostreamIcT_ES5_PKc(ptr noundef nonnull align 8 dereferenceable(8) %22, ptr noundef @.str.5416)
  %24 = load ptr, ptr %7, align 8, !tbaa !4
  %25 = call noundef nonnull align 8 dereferenceable(8) ptr @_ZStlsISt11char_traitsIcEERSt13basic_ostreamIcT_ES5_PKc(ptr noundef nonnull align 8 dereferenceable(8) %23, ptr noundef %24)
  %26 = call noundef nonnull align 8 dereferenceable(8) ptr @_ZStlsISt11char_traitsIcEERSt13basic_ostreamIcT_ES5_PKc(ptr noundef nonnull align 8 dereferenceable(8) %25, ptr noundef @.str.5417)
  %27 = load ptr, ptr %10, align 8, !tbaa !4
  %28 = call noundef nonnull align 8 dereferenceable(8) ptr @_ZStlsISt11char_traitsIcEERSt13basic_ostreamIcT_ES5_PKc(ptr noundef nonnull align 8 dereferenceable(8) %26, ptr noundef %27)
  %29 = call noundef nonnull align 8 dereferenceable(8) ptr @_ZStlsISt11char_traitsIcEERSt13basic_ostreamIcT_ES5_PKc(ptr noundef nonnull align 8 dereferenceable(8) %28, ptr noundef @.str.5418)
  %30 = call noundef nonnull align 8 dereferenceable(8) ptr @_ZNSolsEPFRSoS_E(ptr noundef nonnull align 8 dereferenceable(8) %29, ptr noundef @_ZSt4endlIcSt11char_traitsIcEERSt13basic_ostreamIT_T0_ES6_)
  %31 = call noundef nonnull align 4 dereferenceable(8) ptr @_ZN5boost6detail12test_resultsEv()
  %32 = call noundef nonnull align 4 dereferenceable(4) ptr @_ZN5boost6detail11test_result6errorsEv(ptr noundef nonnull align 4 dereferenceable(8) %31)
  %33 = load i32, ptr %32, align 4, !tbaa !46
  %34 = add nsw i32 %33, 1
  store i32 %34, ptr %32, align 4, !tbaa !46
  store i1 false, ptr %6, align 1
  br label %35

35:                                               ; preds = %17, %15
  %36 = load i1, ptr %6, align 1
  ret i1 %36
}

; Function Attrs: mustprogress nounwind uwtable
define linkonce_odr hidden void @_ZN5boost14static_strings19basic_static_stringILm0EcSt11char_traitsIcEEC2Ev(ptr noundef nonnull align 1 dereferenceable(1) %0) unnamed_addr #4 comdat align 2 {
  %2 = alloca ptr, align 8
  store ptr %0, ptr %2, align 8, !tbaa !4
  %3 = load ptr, ptr %2, align 8
  call void @_ZN5boost14static_strings6detail18static_string_baseILm0EcSt11char_traitsIcEEC2Ev(ptr noundef nonnull align 1 dereferenceable(1) %3) #3
  ret void
}

; Function Attrs: mustprogress uwtable
define hidden void @_ZN5boost14static_strings9testEmptyEv() #5 {
  %1 = alloca %"class.boost::static_strings::basic_static_string.40", align 1
  call void @llvm.lifetime.start.p0(i64 1, ptr %1) #3
  call void @_ZN5boost14static_strings19basic_static_stringILm0EcSt11char_traitsIcEEC2Ev(ptr noundef nonnull align 1 dereferenceable(1) %1) #3
  %2 = call noundef zeroext i1 @_ZN5boost6detail9test_implEPKcS2_iS2_b(ptr noundef @.str.5393, ptr noundef @.str.13, i32 noundef 7353, ptr noundef @__PRETTY_FUNCTION__._ZN5boost14static_strings9testEmptyEv, i1 noundef zeroext true)
  %3 = call noundef zeroext i1 @_ZN5boost6detail9test_implEPKcS2_iS2_b(ptr noundef @.str.5394, ptr noundef @.str.13, i32 noundef 7354, ptr noundef @__PRETTY_FUNCTION__._ZN5boost14static_strings9testEmptyEv, i1 noundef zeroext true)
  %4 = call noundef zeroext i1 @_ZN5boost6detail9test_implEPKcS2_iS2_b(ptr noundef @.str.5395, ptr noundef @.str.13, i32 noundef 7355, ptr noundef @__PRETTY_FUNCTION__._ZN5boost14static_strings9testEmptyEv, i1 noundef zeroext true)
  call void @llvm.lifetime.end.p0(i64 1, ptr %1) #3
  ret void
}