; Function Attrs: mustprogress nofree nounwind uwtable
define hidden void @_ZN5boost14static_strings9testEmptyEv() local_unnamed_addr #15 personality ptr @__gxx_personality_v0 {
  %1 = load atomic i8, ptr @_ZGVZN5boost6detail12test_resultsEvE8instance acquire, align 8
  %2 = icmp eq i8 %1, 0
  br i1 %2, label %3, label %_ZN5boost6detail9test_implEPKcS2_iS2_b.exit, !prof !56

3:                                                ; preds = %0
  %4 = tail call i32 @__cxa_guard_acquire(ptr nonnull @_ZGVZN5boost6detail12test_resultsEvE8instance) #36
  %.not.i.i = icmp eq i32 %4, 0
  br i1 %.not.i.i, label %_ZN5boost6detail9test_implEPKcS2_iS2_b.exit, label %5

5:                                                ; preds = %3
  store i8 0, ptr @_ZZN5boost6detail12test_resultsEvE8instance, align 4, !tbaa !57
  store i32 0, ptr getelementptr inbounds nuw (i8, ptr @_ZZN5boost6detail12test_resultsEvE8instance, i64 4), align 4, !tbaa !60
  %6 = tail call i32 @__cxa_atexit(ptr nonnull @_ZN5boost6detail11test_resultD2Ev, ptr nonnull @_ZZN5boost6detail12test_resultsEvE8instance, ptr nonnull @__dso_handle) #36
  tail call void @__cxa_guard_release(ptr nonnull @_ZGVZN5boost6detail12test_resultsEvE8instance) #36
  br label %_ZN5boost6detail9test_implEPKcS2_iS2_b.exit

_ZN5boost6detail9test_implEPKcS2_iS2_b.exit:      ; preds = %0, %3, %5
  %7 = load atomic i8, ptr @_ZGVZN5boost6detail12test_resultsEvE8instance acquire, align 8
  %8 = icmp eq i8 %7, 0
  br i1 %8, label %9, label %_ZN5boost6detail9test_implEPKcS2_iS2_b.exit2, !prof !56

9:                                                ; preds = %_ZN5boost6detail9test_implEPKcS2_iS2_b.exit
  %10 = tail call i32 @__cxa_guard_acquire(ptr nonnull @_ZGVZN5boost6detail12test_resultsEvE8instance) #36
  %.not.i.i1 = icmp eq i32 %10, 0
  br i1 %.not.i.i1, label %_ZN5boost6detail9test_implEPKcS2_iS2_b.exit2, label %11

11:                                               ; preds = %9
  store i8 0, ptr @_ZZN5boost6detail12test_resultsEvE8instance, align 4, !tbaa !57
  store i32 0, ptr getelementptr inbounds nuw (i8, ptr @_ZZN5boost6detail12test_resultsEvE8instance, i64 4), align 4, !tbaa !60
  %12 = tail call i32 @__cxa_atexit(ptr nonnull @_ZN5boost6detail11test_resultD2Ev, ptr nonnull @_ZZN5boost6detail12test_resultsEvE8instance, ptr nonnull @__dso_handle) #36
  tail call void @__cxa_guard_release(ptr nonnull @_ZGVZN5boost6detail12test_resultsEvE8instance) #36
  br label %_ZN5boost6detail9test_implEPKcS2_iS2_b.exit2

_ZN5boost6detail9test_implEPKcS2_iS2_b.exit2:     ; preds = %_ZN5boost6detail9test_implEPKcS2_iS2_b.exit, %9, %11
  %13 = load atomic i8, ptr @_ZGVZN5boost6detail12test_resultsEvE8instance acquire, align 8
  %14 = icmp eq i8 %13, 0
  br i1 %14, label %15, label %_ZN5boost6detail9test_implEPKcS2_iS2_b.exit4, !prof !56

15:                                               ; preds = %_ZN5boost6detail9test_implEPKcS2_iS2_b.exit2
  %16 = tail call i32 @__cxa_guard_acquire(ptr nonnull @_ZGVZN5boost6detail12test_resultsEvE8instance) #36
  %.not.i.i3 = icmp eq i32 %16, 0
  br i1 %.not.i.i3, label %_ZN5boost6detail9test_implEPKcS2_iS2_b.exit4, label %17

17:                                               ; preds = %15
  store i8 0, ptr @_ZZN5boost6detail12test_resultsEvE8instance, align 4, !tbaa !57
  store i32 0, ptr getelementptr inbounds nuw (i8, ptr @_ZZN5boost6detail12test_resultsEvE8instance, i64 4), align 4, !tbaa !60
  %18 = tail call i32 @__cxa_atexit(ptr nonnull @_ZN5boost6detail11test_resultD2Ev, ptr nonnull @_ZZN5boost6detail12test_resultsEvE8instance, ptr nonnull @__dso_handle) #36
  tail call void @__cxa_guard_release(ptr nonnull @_ZGVZN5boost6detail12test_resultsEvE8instance) #36
  br label %_ZN5boost6detail9test_implEPKcS2_iS2_b.exit4

_ZN5boost6detail9test_implEPKcS2_iS2_b.exit4:     ; preds = %_ZN5boost6detail9test_implEPKcS2_iS2_b.exit2, %15, %17
  ret void
}